; Function Attrs: mustprogress nofree norecurse nosync nounwind willreturn memory(argmem: read) uwtable
define noundef zeroext range(i8 0, 16) i8 @_ZN5faiss22pq4_get_packed_elementEPKhmmmm(ptr noundef readonly captures(none) %0, i64 noundef %1, i64 noundef %2, i64 noundef %3, i64 noundef %4) local_unnamed_addr #13 {
  %6 = udiv i64 %3, %1
  %7 = add i64 %2, 1
  %8 = lshr i64 %7, 1
  %9 = mul i64 %8, %1
  %10 = mul i64 %9, %6
  %11 = getelementptr inbounds nuw i8, ptr %0, i64 %10
  %12 = urem i64 %3, %1
  %13 = icmp ugt i64 %12, 15
  %14 = and i64 %12, 15
  %15 = icmp samesign ult i64 %14, 8
  %16 = shl nuw nsw i64 %14, 1
  %17 = add nsw i64 %16, -15
  %.0.i = select i1 %15, i64 %16, i64 %17
  %18 = shl i64 %4, 4
  %19 = and i64 %18, 16
  %20 = lshr i64 %4, 1
  %21 = mul i64 %20, %1
  %22 = getelementptr i8, ptr %11, i64 %21
  %23 = getelementptr i8, ptr %22, i64 %19
  %24 = getelementptr i8, ptr %23, i64 %.0.i
  %25 = load i8, ptr %24, align 1, !tbaa !11
  %26 = lshr i8 %25, 4
  %27 = and i8 %25, 15
  %.0 = select i1 %13, i8 %26, i8 %27
  ret i8 %.0
}